; ModuleID = '51/754.c'
source_filename = "51/754.c"
target datalayout = "e-m:e-p270:32:32-p271:32:32-p272:64:64-i64:64-f80:128-n8:16:32:64-S128"
target triple = "x86_64-pc-linux-gnu"

@.str = private unnamed_addr constant [3 x i8] c"%d\00", align 1
@.str.1 = private unnamed_addr constant [3 x i8] c"%s\00", align 1
@.str.2 = private unnamed_addr constant [4 x i8] c"NO\0A\00", align 1
@.str.3 = private unnamed_addr constant [4 x i8] c"%d\0A\00", align 1
@.str.4 = private unnamed_addr constant [4 x i8] c"%s\0A\00", align 1

; Function Attrs: noinline nounwind uwtable
define dso_local i32 @main() #0 {
  %1 = alloca i32, align 4
  %2 = alloca [501 x i8], align 16
  %3 = alloca [500 x [5 x i8]], align 16
  %4 = alloca i32, align 4
  %5 = alloca i32, align 4
  %6 = alloca i32, align 4
  %7 = alloca i32, align 4
  %8 = alloca i32, align 4
  %9 = alloca i32, align 4
  %10 = alloca i32, align 4
  %11 = alloca i32, align 4
  %12 = alloca [500 x i32], align 16
  store i32 0, i32* %1, align 4
  store i32 0, i32* %10, align 4
  %13 = bitcast [500 x i32]* %12 to i8*
  call void @llvm.memset.p0i8.i64(i8* align 16 %13, i8 0, i64 2000, i1 false)
  %14 = call i32 (i8*, ...) @__isoc99_scanf(i8* getelementptr inbounds ([3 x i8], [3 x i8]* @.str, i64 0, i64 0), i32* %4)
  %15 = getelementptr inbounds [501 x i8], [501 x i8]* %2, i64 0, i64 0
  %16 = call i32 (i8*, ...) @__isoc99_scanf(i8* getelementptr inbounds ([3 x i8], [3 x i8]* @.str.1, i64 0, i64 0), i8* %15)
  %17 = getelementptr inbounds [501 x i8], [501 x i8]* %2, i64 0, i64 0
  %18 = call i64 @strlen(i8* %17) #4
  %19 = trunc i64 %18 to i32
  store i32 %19, i32* %7, align 4
  store i32 0, i32* %11, align 4
  store i32 0, i32* %5, align 4
  br label %20

20:                                               ; preds = %52, %0
  %21 = load i32, i32* %5, align 4
  %22 = load i32, i32* %7, align 4
  %23 = load i32, i32* %4, align 4
  %24 = sub nsw i32 %22, %23
  %25 = icmp sle i32 %21, %24
  br i1 %25, label %26, label %55

26:                                               ; preds = %20
  store i32 0, i32* %8, align 4
  %27 = load i32, i32* %5, align 4
  store i32 %27, i32* %6, align 4
  br label %28

28:                                               ; preds = %48, %26
  %29 = load i32, i32* %6, align 4
  %30 = load i32, i32* %4, align 4
  %31 = load i32, i32* %5, align 4
  %32 = add nsw i32 %30, %31
  %33 = sub nsw i32 %32, 1
  %34 = icmp sle i32 %29, %33
  br i1 %34, label %35, label %51

35:                                               ; preds = %28
  %36 = load i32, i32* %6, align 4
  %37 = sext i32 %36 to i64
  %38 = getelementptr inbounds [501 x i8], [501 x i8]* %2, i64 0, i64 %37
  %39 = load i8, i8* %38, align 1
  %40 = load i32, i32* %5, align 4
  %41 = sext i32 %40 to i64
  %42 = getelementptr inbounds [500 x [5 x i8]], [500 x [5 x i8]]* %3, i64 0, i64 %41
  %43 = load i32, i32* %8, align 4
  %44 = sext i32 %43 to i64
  %45 = getelementptr inbounds [5 x i8], [5 x i8]* %42, i64 0, i64 %44
  store i8 %39, i8* %45, align 1
  %46 = load i32, i32* %8, align 4
  %47 = add nsw i32 %46, 1
  store i32 %47, i32* %8, align 4
  br label %48

48:                                               ; preds = %35
  %49 = load i32, i32* %6, align 4
  %50 = add nsw i32 %49, 1
  store i32 %50, i32* %6, align 4
  br label %28

51:                                               ; preds = %28
  br label %52

52:                                               ; preds = %51
  %53 = load i32, i32* %5, align 4
  %54 = add nsw i32 %53, 1
  store i32 %54, i32* %5, align 4
  br label %20

55:                                               ; preds = %20
  %56 = getelementptr inbounds [500 x i32], [500 x i32]* %12, i64 0, i64 0
  store i32 1, i32* %56, align 16
  store i32 1, i32* %5, align 4
  br label %57

57:                                               ; preds = %90, %55
  %58 = load i32, i32* %5, align 4
  %59 = load i32, i32* %7, align 4
  %60 = load i32, i32* %4, align 4
  %61 = sub nsw i32 %59, %60
  %62 = icmp sle i32 %58, %61
  br i1 %62, label %63, label %93

63:                                               ; preds = %57
  store i32 0, i32* %6, align 4
  br label %64

64:                                               ; preds = %86, %63
  %65 = load i32, i32* %6, align 4
  %66 = load i32, i32* %5, align 4
  %67 = icmp sle i32 %65, %66
  br i1 %67, label %68, label %89

68:                                               ; preds = %64
  %69 = load i32, i32* %5, align 4
  %70 = sext i32 %69 to i64
  %71 = getelementptr inbounds [500 x [5 x i8]], [500 x [5 x i8]]* %3, i64 0, i64 %70
  %72 = getelementptr inbounds [5 x i8], [5 x i8]* %71, i64 0, i64 0
  %73 = load i32, i32* %6, align 4
  %74 = sext i32 %73 to i64
  %75 = getelementptr inbounds [500 x [5 x i8]], [500 x [5 x i8]]* %3, i64 0, i64 %74
  %76 = getelementptr inbounds [5 x i8], [5 x i8]* %75, i64 0, i64 0
  %77 = call i32 @strcmp(i8* %72, i8* %76) #4
  %78 = icmp eq i32 %77, 0
  br i1 %78, label %79, label %85

79:                                               ; preds = %68
  %80 = load i32, i32* %6, align 4
  %81 = sext i32 %80 to i64
  %82 = getelementptr inbounds [500 x i32], [500 x i32]* %12, i64 0, i64 %81
  %83 = load i32, i32* %82, align 4
  %84 = add nsw i32 %83, 1
  store i32 %84, i32* %82, align 4
  br label %89

85:                                               ; preds = %68
  br label %86

86:                                               ; preds = %85
  %87 = load i32, i32* %6, align 4
  %88 = add nsw i32 %87, 1
  store i32 %88, i32* %6, align 4
  br label %64

89:                                               ; preds = %79, %64
  br label %90

90:                                               ; preds = %89
  %91 = load i32, i32* %5, align 4
  %92 = add nsw i32 %91, 1
  store i32 %92, i32* %5, align 4
  br label %57

93:                                               ; preds = %57
  store i32 0, i32* %5, align 4
  br label %94

94:                                               ; preds = %113, %93
  %95 = load i32, i32* %5, align 4
  %96 = load i32, i32* %7, align 4
  %97 = load i32, i32* %4, align 4
  %98 = sub nsw i32 %96, %97
  %99 = icmp sle i32 %95, %98
  br i1 %99, label %100, label %116

100:                                              ; preds = %94
  %101 = load i32, i32* %5, align 4
  %102 = sext i32 %101 to i64
  %103 = getelementptr inbounds [500 x i32], [500 x i32]* %12, i64 0, i64 %102
  %104 = load i32, i32* %103, align 4
  %105 = load i32, i32* %11, align 4
  %106 = icmp sgt i32 %104, %105
  br i1 %106, label %107, label %112

107:                                              ; preds = %100
  %108 = load i32, i32* %5, align 4
  %109 = sext i32 %108 to i64
  %110 = getelementptr inbounds [500 x i32], [500 x i32]* %12, i64 0, i64 %109
  %111 = load i32, i32* %110, align 4
  store i32 %111, i32* %11, align 4
  br label %112

112:                                              ; preds = %107, %100
  br label %113

113:                                              ; preds = %112
  %114 = load i32, i32* %5, align 4
  %115 = add nsw i32 %114, 1
  store i32 %115, i32* %5, align 4
  br label %94

116:                                              ; preds = %94
  %117 = load i32, i32* %11, align 4
  %118 = icmp eq i32 %117, 1
  br i1 %118, label %119, label %121

119:                                              ; preds = %116
  %120 = call i32 (i8*, ...) @printf(i8* getelementptr inbounds ([4 x i8], [4 x i8]* @.str.2, i64 0, i64 0))
  br label %148

121:                                              ; preds = %116
  %122 = load i32, i32* %11, align 4
  %123 = call i32 (i8*, ...) @printf(i8* getelementptr inbounds ([4 x i8], [4 x i8]* @.str.3, i64 0, i64 0), i32 %122)
  store i32 0, i32* %5, align 4
  br label %124

124:                                              ; preds = %144, %121
  %125 = load i32, i32* %5, align 4
  %126 = load i32, i32* %7, align 4
  %127 = load i32, i32* %4, align 4
  %128 = sub nsw i32 %126, %127
  %129 = icmp sle i32 %125, %128
  br i1 %129, label %130, label %147

130:                                              ; preds = %124
  %131 = load i32, i32* %5, align 4
  %132 = sext i32 %131 to i64
  %133 = getelementptr inbounds [500 x i32], [500 x i32]* %12, i64 0, i64 %132
  %134 = load i32, i32* %133, align 4
  %135 = load i32, i32* %11, align 4
  %136 = icmp eq i32 %134, %135
  br i1 %136, label %137, label %143

137:                                              ; preds = %130
  %138 = load i32, i32* %5, align 4
  %139 = sext i32 %138 to i64
  %140 = getelementptr inbounds [500 x [5 x i8]], [500 x [5 x i8]]* %3, i64 0, i64 %139
  %141 = getelementptr inbounds [5 x i8], [5 x i8]* %140, i64 0, i64 0
  %142 = call i32 (i8*, ...) @printf(i8* getelementptr inbounds ([4 x i8], [4 x i8]* @.str.4, i64 0, i64 0), i8* %141)
  br label %143

143:                                              ; preds = %137, %130
  br label %144

144:                                              ; preds = %143
  %145 = load i32, i32* %5, align 4
  %146 = add nsw i32 %145, 1
  store i32 %146, i32* %5, align 4
  br label %124

147:                                              ; preds = %124
  br label %148

148:                                              ; preds = %147, %119
  %149 = load i32, i32* %1, align 4
  ret i32 %149
}

; Function Attrs: argmemonly nounwind willreturn
declare void @llvm.memset.p0i8.i64(i8* nocapture writeonly, i8, i64, i1 immarg) #1

declare dso_local i32 @__isoc99_scanf(i8*, ...) #2

; Function Attrs: nounwind readonly
declare dso_local i64 @strlen(i8*) #3

; Function Attrs: nounwind readonly
declare dso_local i32 @strcmp(i8*, i8*) #3

declare dso_local i32 @printf(i8*, ...) #2


!llvm.module.flags = !{!0}
!llvm.ident = !{!1}

!0 = !{i32 1, !"wchar_size", i32 4}
!1 = !{!"clang version 10.0.0-4ubuntu1 "}
